(dp0
(S'0.00.50.9'
p1
I1
tp2
F1.74
s(S'-0.00.61.7'
p3
I2
tp4
F1.3763199999999998
s(S'0.00.31.8'
p5
I1
tp6
F5.135568033242965
s(S'-0.00.71.8'
p7
I2
tp8
F1.3599999999999999
s(S'-0.41.12.2'
p9
I2
tp10
F1.75
s(S'0.01.11.5'
p11
I1
tp12
F5.211808233377296
s(S'0.11.11.4'
p13
I0
tp14
F2.1862377574400003
s(S'-0.00.91.6'
p15
I2
tp16
F1.87192
s(S'-0.12.02.3'
p17
I2
tp18
F4.240507767410534
s(S'0.00.81.4'
p19
I0
tp20
F2.1388343080566785
s(S'0.40.71.0'
p21
I1
tp22
F5.880413360668609
s(S'0.51.80.6'
p23
I0
tp24
F1.66
s(S'0.31.52.0'
p25
I1
tp26
F4.520394041001337
s(S'-0.00.41.6'
p27
I1
tp28
F3.785744281971532
s(S'0.01.01.4'
p29
I1
tp30
F1.75
s(S'0.51.80.8'
p31
I1
tp32
F1.66
s(S'0.31.0-0.0'
p33
I2
tp34
F3.2072059189401165
s(S'0.31.31.2'
p35
I1
tp36
F3.512785463773575
s(S'0.21.41.0'
p37
I0
tp38
F2.72406271488
s(S'-0.10.81.9'
p39
I1
tp40
F1.5
s(S'0.51.5-0.0'
p41
I2
tp42
F0.8292545352534736
s(S'-0.00.40.8'
p43
I0
tp44
F5.4
s(S'0.31.51.0'
p45
I0
tp46
F2.2156
s(S'-0.00.51.7'
p47
I0
tp48
F1.19
s(S'0.00.81.5'
p49
I2
tp50
F2.5181499997591965
s(S'0.20.60.7'
p51
I0
tp52
F5.6
s(S'0.31.00.0'
p53
I0
tp54
F8.29999615424605
s(S'-0.10.82.1'
p55
I1
tp56
F1.63
s(S'-0.31.12.2'
p57
I0
tp58
F1.75
s(S'0.51.80.6'
p59
I2
tp60
F1.66
s(S'0.10.91.1'
p61
I0
tp62
F5.9
s(S'0.00.51.6'
p63
I0
tp64
F4.353927943516297
s(S'-0.51.32.7'
p65
I0
tp66
F1.71
s(S'-0.51.42.8'
p67
I2
tp68
F1.71
s(S'-0.51.32.8'
p69
I1
tp70
F1.716
s(S'0.01.82.4'
p71
I2
tp72
F2.364248754176
s(S'0.01.0-0.0'
p73
I0
tp74
F0.6614850272166283
s(S'-0.51.42.9'
p75
I0
tp76
F4.101081710544229
s(S'0.20.91.2'
p77
I0
tp78
F1.4206787763447375
s(S'-0.51.43.1'
p79
I1
tp80
F2.10570624
s(S'-0.00.51.6'
p81
I2
tp82
F2.0091869952000003
s(S'0.31.41.2'
p83
I1
tp84
F2.5688396213837112
s(S'0.01.21.5'
p85
I2
tp86
F15.991441166886476
s(S'0.41.81.4'
p87
I0
tp88
F3.736
s(S'0.21.00.0'
p89
I1
tp90
F3.7535302523906524
s(S'-0.21.02.3'
p91
I1
tp92
F2.7612888068505597
s(S'-0.00.21.9'
p93
I2
tp94
F1.3
s(S'0.21.10.8'
p95
I2
tp96
F2.1
s(S'0.00.41.6'
p97
I0
tp98
F3.9882444545921887
s(S'-0.00.41.5'
p99
I0
tp100
F0.8319999999999999
s(S'0.31.42.0'
p101
I2
tp102
F3.4704325065090993
s(S'0.11.11.2'
p103
I1
tp104
F1.83
s(S'0.11.01.2'
p105
I1
tp106
F2.8317402671095357
s(S'-0.01.0-0.0'
p107
I2
tp108
F6.185737679524551
s(S'0.00.31.4'
p109
I0
tp110
F7.558384856204967
s(S'-0.10.91.9'
p111
I0
tp112
F1.63
s(S'0.51.6-0.0'
p113
I1
tp114
F0.13131637736286772
s(S'0.21.21.1'
p115
I2
tp116
F1.92
s(S'0.51.51.0'
p117
I2
tp118
F0.34385643749885464
s(S'0.42.01.4'
p119
I1
tp120
F3.5
s(S'0.51.80.7'
p121
I0
tp122
F1.66
s(S'0.31.41.0'
p123
I2
tp124
F1.91
s(S'0.41.71.5'
p125
I1
tp126
F5.069503999999999
s(S'0.31.62.1'
p127
I1
tp128
F3.4079389175957817
s(S'0.31.41.5'
p129
I1
tp130
F3.6727558339703132
s(S'0.51.70.9'
p131
I0
tp132
F1.9836
s(S'0.11.21.1'
p133
I0
tp134
F1.894
s(S'0.00.61.5'
p135
I0
tp136
F3.943125842231774
s(S'0.11.11.1'
p137
I1
tp138
F1.83
s(S'0.01.82.2'
p139
I2
tp140
F2.833623476596286
s(S'-0.00.31.4'
p141
I1
tp142
F3.2976253925237695
s(S'0.51.50.6'
p143
I0
tp144
F0.19722436226800544
s(S'0.01.00.0'
p145
I1
tp146
F0.003950920633165777
s(S'0.11.11.4'
p147
I2
tp148
F2.5654948608000003
s(S'0.81.00.0'
p149
I0
tp150
F3.2257077254553606
s(S'0.21.01.0'
p151
I2
tp152
F2.2560000000000002
s(S'0.10.91.0'
p153
I0
tp154
F6.0
s(S'0.10.50.7'
p155
I1
tp156
F5.44682856511031
s(S'0.41.00.0'
p157
I1
tp158
F7.766211596876444
s(S'0.51.80.5'
p159
I0
tp160
F2.1217480460697598
s(S'0.00.31.6'
p161
I2
tp162
F2.8047357413898495
s(S'0.21.41.0'
p163
I2
tp164
F2.530174208
s(S'0.00.41.5'
p165
I1
tp166
F3.688296327260217
s(S'0.10.50.8'
p167
I2
tp168
F6.589986505442429
s(S'-0.41.32.3'
p169
I0
tp170
F1.8
s(S'000'
p171
I1
tp172
F0.19444961696014135
s(S'0.00.61.4'
p173
I1
tp174
F2.5161856040369517
s(S'0.61.00.0'
p175
I0
tp176
F7.990115295348425
s(S'0.31.00.0'
p177
I2
tp178
F8.299996324955789
s(S'0.41.81.5'
p179
I0
tp180
F3.75
s(S'0.41.61.0'
p181
I1
tp182
F1.83
s(S'0.00.71.5'
p183
I2
tp184
F2.506243612145205
s(S'-0.00.71.7'
p185
I1
tp186
F1.3599999999999999
s(S'0.00.51.6'
p187
I2
tp188
F3.796315115721867
s(S'0.71.00.0'
p189
I0
tp190
F7.092373225543997
s(S'0.40.70.9'
p191
I2
tp192
F4.981611190754909
s(S'-0.01.00.0'
p193
I0
tp194
F1.8154311430616812
s(S'-0.00.31.7'
p195
I2
tp196
F5.384903788106062
s(S'0.51.00.0'
p197
I2
tp198
F4.919724083935282
s(S'-0.20.92.2'
p199
I2
tp200
F1.71
s(S'0.21.0-0.0'
p201
I2
tp202
F1.1828738761693587
s(S'0.00.31.5'
p203
I0
tp204
F9.129876321793336
s(S'0.00.91.5'
p205
I0
tp206
F1.9344000000000001
s(S'0.00.71.4'
p207
I0
tp208
F2.3453532658779292
s(S'0.31.51.7'
p209
I2
tp210
F4.410480000000001
s(S'0.10.61.3'
p211
I1
tp212
F4.713573250552521
s(S'0.71.00.0'
p213
I2
tp214
F7.012819954427705
s(S'0.51.5-0.2'
p215
I1
tp216
F0.32016778591003303
s(S'-0.00.81.8'
p217
I2
tp218
F2.534858133096039
s(S'0.21.01.2'
p219
I0
tp220
F4.312060045996884
s(S'0.31.51.2'
p221
I1
tp222
F3.894
s(S'0.00.61.6'
p223
I2
tp224
F1.19
s(S'0.00.21.9'
p225
I0
tp226
F6.504576
s(S'0.10.71.2'
p227
I1
tp228
F1.3533116226681758
s(S'0.11.00.0'
p229
I0
tp230
F1.7719154991946506
s(S'0.00.41.6'
p231
I2
tp232
F4.221046020719215
s(S'-0.00.61.7'
p233
I1
tp234
F1.19
s(S'-0.01.01.7'
p235
I2
tp236
F1.84
s(S'0.01.82.5'
p237
I2
tp238
F1.7
s(S'-0.00.71.8'
p239
I1
tp240
F1.924736
s(S'0.51.70.9'
p241
I1
tp242
F2.027376
s(S'0.00.41.0'
p243
I2
tp244
F3.0060378007341386
s(S'0.41.60.9'
p245
I0
tp246
F3.3038116364402694
s(S'0.51.80.7'
p247
I1
tp248
F1.66
s(S'0.21.0-0.0'
p249
I1
tp250
F1.1815475007088394
s(S'0.31.41.0'
p251
I0
tp252
F1.9
s(S'0.00.91.4'
p253
I2
tp254
F1.6400000000000001
s(S'0.51.0-0.0'
p255
I2
tp256
F8.744537208911593
s(S'0.00.51.4'
p257
I0
tp258
F6.0071287828300886
s(S'0.41.41.7'
p259
I1
tp260
F3.83
s(S'0.41.61.5'
p261
I2
tp262
F5.969211264
s(S'0.41.70.9'
p263
I0
tp264
F1.8
s(S'0.21.72.4'
p265
I0
tp266
F1.7290044704703091
s(S'0.31.0-0.0'
p267
I1
tp268
F4.319682939044073
s(S'-0.01.01.6'
p269
I0
tp270
F2.1890400000000003
s(S'0.00.91.4'
p271
I1
tp272
F1.87192
s(S'0.01.82.3'
p273
I1
tp274
F3.043098747158528
s(S'0.52.11.8'
p275
I1
tp276
F6.797145391954329
s(S'-0.10.92.1'
p277
I2
tp278
F2.047961668608
s(S'0.00.91.6'
p279
I1
tp280
F8.732685257687637
s(S'0.21.00.9'
p281
I0
tp282
F6.1
s(S'-0.01.92.1'
p283
I2
tp284
F1.5780196097281443
s(S'0.00.81.5'
p285
I1
tp286
F2.48521509711872
s(S'-0.00.31.9'
p287
I2
tp288
F2.459019351427252
s(S'0.41.61.4'
p289
I0
tp290
F5.263265664
s(S'-0.51.32.8'
p291
I2
tp292
F2.273904
s(S'0.00.31.6'
p293
I0
tp294
F2.8047351932365334
s(S'0.00.71.5'
p295
I0
tp296
F1.932315603707193
s(S'0.31.51.4'
p297
I2
tp298
F3.91
s(S'-0.51.43.0'
p299
I1
tp300
F1.74
s(S'0.21.01.3'
p301
I0
tp302
F7.52528
s(S'-0.12.02.1'
p303
I1
tp304
F3.5803093253015765
s(S'0.52.11.3'
p305
I1
tp306
F4.366319999999999
s(S'0.41.71.3'
p307
I1
tp308
F3.8
s(S'0.00.61.5'
p309
I2
tp310
F3.4155334990612607
s(S'0.52.12.0'
p311
I0
tp312
F4.757978980418518
s(S'0.21.00.0'
p313
I2
tp314
F3.8218054037334537
s(S'-0.51.32.3'
p315
I2
tp316
F1.71
s(S'0.31.41.7'
p317
I1
tp318
F4.6657913832443505
s(S'-0.31.12.3'
p319
I1
tp320
F3.3674218266214404
s(S'0.21.10.9'
p321
I0
tp322
F6.1
s(S'-0.00.71.6'
p323
I2
tp324
F1.3599999999999999
s(S'0.01.01.6'
p325
I0
tp326
F5.151168
s(S'0.31.42.1'
p327
I0
tp328
F2.3285406331363743
s(S'0.51.00.0'
p329
I0
tp330
F5.316886523869109
s(S'-0.00.31.6'
p331
I1
tp332
F2.8498824668443183
s(S'0.11.01.2'
p333
I2
tp334
F4.092763298713612
s(S'0.00.41.3'
p335
I2
tp336
F2.227130314752
s(S'0.00.71.4'
p337
I2
tp338
F2.7393782142976657
s(S'0.20.50.8'
p339
I0
tp340
F6.224
s(S'0.00.21.8'
p341
I1
tp342
F1.9089688412160002
s(S'0.30.60.7'
p343
I1
tp344
F1.7
s(S'0.11.0-0.0'
p345
I1
tp346
F0.5018849451158317
s(S'0.41.0-0.0'
p347
I1
tp348
F6.879084860694008
s(S'-0.00.81.8'
p349
I0
tp350
F1.872019060031488
s(S'0.11.41.4'
p351
I1
tp352
F1.98
s(S'-0.10.92.2'
p353
I1
tp354
F1.6
s(S'0.41.71.4'
p355
I1
tp356
F4.50528
s(S'0.01.00.0'
p357
I0
tp358
F0.003860368841277715
s(S'0.00.51.5'
p359
I0
tp360
F4.330507437992955
s(S'0.10.50.5'
p361
I1
tp362
F2.8482409522309706
s(S'-0.00.31.5'
p363
I1
tp364
F6.00085810337331
s(S'0.11.11.1'
p365
I2
tp366
F2.1228000000000002
s(S'0.41.91.4'
p367
I0
tp368
F3.662
s(S'0.41.60.9'
p369
I2
tp370
F1.824
s(S'-0.31.02.3'
p371
I0
tp372
F1.6600000000000001
s(S'0.11.31.4'
p373
I1
tp374
F1.98
s(S'0.31.51.6'
p375
I2
tp376
F3.91
s(S'0.11.11.4'
p377
I1
tp378
F2.6737324800000004
s(S'0.00.40.8'
p379
I1
tp380
F4.234163559751465
s(S'0.21.31.0'
p381
I1
tp382
F3.4478716653404162
s(S'0.51.80.6'
p383
I1
tp384
F1.66
s(S'-0.10.92.1'
p385
I1
tp386
F2.6122604288
s(S'0.00.21.7'
p387
I1
tp388
F1.3536
s(S'0.41.61.2'
p389
I1
tp390
F4.32024
s(S'0.41.31.0'
p391
I0
tp392
F0.28155921443059073
s(S'0.51.0-0.0'
p393
I0
tp394
F7.345421584937566
s(S'0.41.71.6'
p395
I2
tp396
F5.3888473856
s(S'-0.00.41.6'
p397
I0
tp398
F3.801954523439101
s(S'0.21.62.4'
p399
I0
tp400
F1.717157287525381
s(S'0.01.01.4'
p401
I2
tp402
F1.9740000000000002
s(S'0.52.01.4'
p403
I0
tp404
F3.3899999999999997
s(S'-0.01.0-0.0'
p405
I0
tp406
F5.088259686003218
s(S'0.00.71.6'
p407
I0
tp408
F3.39
s(S'0.11.01.4'
p409
I2
tp410
F1.74
s(S'0.21.41.0'
p411
I1
tp412
F2.56152
s(S'0.21.11.2'
p413
I0
tp414
F2.802049127734582
s(S'0.00.41.1'
p415
I2
tp416
F2.227130314752
s(S'0.00.61.6'
p417
I0
tp418
F2.9127925759999997
s(S'0.31.51.0'
p419
I1
tp420
F1.91
s(S'0.51.50.0'
p421
I0
tp422
F0.19722436226800544
s(S'0.31.00.0'
p423
I1
tp424
F6.957996948308843
s(S'0.31.10.8'
p425
I0
tp426
F6.1
s(S'0.31.52.1'
p427
I2
tp428
F3.9827796541469764
s(S'0.41.71.7'
p429
I0
tp430
F4.5480832
s(S'0.10.71.4'
p431
I1
tp432
F1.9376
s(S'0.10.81.1'
p433
I0
tp434
F7.275104
s(S'-0.01.31.7'
p435
I2
tp436
F1.95
s(S'0.00.51.6'
p437
I1
tp438
F3.3740299262693263
s(S'-0.51.32.7'
p439
I1
tp440
F1.71
s(S'0.01.11.6'
p441
I1
tp442
F3.854
s(S'-0.51.32.8'
p443
I0
tp444
F2.0738246399999998
s(S'0.31.41.9'
p445
I1
tp446
F4.717379780741843
s(S'0.51.80.5'
p447
I2
tp448
F2.813990621134848
s(S'-0.01.00.0'
p449
I2
tp450
F1.5146279381373557
s(S'0.51.50.1'
p451
I2
tp452
F0.19722436226800544
s(S'-0.00.31.8'
p453
I2
tp454
F2.350876124763399
s(S'0.21.00.0'
p455
I0
tp456
F3.711937487534071
s(S'0.01.01.3'
p457
I1
tp458
F2.2988000000000004
s(S'-0.00.21.8'
p459
I2
tp460
F1.2
s(S'0.52.31.7'
p461
I0
tp462
F3.2
s(S'0.00.31.9'
p463
I2
tp464
F4.934238616007269
s(S'0.11.11.2'
p465
I2
tp466
F1.83
s(S'0.11.01.2'
p467
I0
tp468
F2.9187158300295204
s(S'-0.11.51.7'
p469
I1
tp470
F4.903993933045732
s(S'-0.41.22.2'
p471
I1
tp472
F3.4898676532428805
s(S'-0.10.91.9'
p473
I1
tp474
F2.141168
s(S'0.11.72.4'
p475
I0
tp476
F1.683772233983162
s(S'0.10.61.2'
p477
I0
tp478
F0.5294629947016881
s(S'0.40.71.1'
p479
I2
tp480
F5.725582658476005
s(S'0.11.41.5'
p481
I2
tp482
F8.951954241305508
s(S'0.00.51.5'
p483
I2
tp484
F2.475640847296696
s(S'-0.11.31.7'
p485
I2
tp486
F1.98
s(S'0.51.50.8'
p487
I0
tp488
F0.2846525074986149
s(S'0.10.71.3'
p489
I0
tp490
F6.6728388757625785
s(S'0.11.21.1'
p491
I1
tp492
F1.9
s(S'0.00.50.6'
p493
I1
tp494
F1.938928343236608
s(S'0.11.11.1'
p495
I0
tp496
F2.1157184
s(S'0.21.11.1'
p497
I0
tp498
F3.8000000000000003
s(S'0.31.62.0'
p499
I1
tp500
F1.8992950799330068
s(S'-0.11.41.7'
p501
I1
tp502
F4.4358709775585945
s(S'0.00.81.4'
p503
I1
tp504
F2.8221429502361604
s(S'0.52.11.5'
p505
I1
tp506
F4.4357472
s(S'0.51.50.3'
p507
I0
tp508
F0.2316782768347565
s(S'0.41.42.0'
p509
I2
tp510
F5.71269746176
s(S'-0.12.02.4'
p511
I0
tp512
F3.092267329479699
s(S'0.00.51.0'
p513
I2
tp514
F2.0517192163459073
s(S'0.00.50.8'
p515
I1
tp516
F1.5
s(S'0.10.81.2'
p517
I0
tp518
F4.49247244357724
s(S'0.11.21.5'
p519
I0
tp520
F1.95
s(S'-0.00.41.6'
p521
I2
tp522
F3.7793181318415634
s(S'0.41.41.6'
p523
I0
tp524
F4.523123204842573
s(S'0.01.01.4'
p525
I0
tp526
F2.0748
s(S'0.41.00.0'
p527
I0
tp528
F7.76028133193166
s(S'0.00.31.7'
p529
I2
tp530
F6.935567289663755
s(S'0.01.21.6'
p531
I2
tp532
F15.57627704936946
s(S'-0.51.43.0'
p533
I2
tp534
F1.74
s(S'0.21.21.2'
p535
I0
tp536
F1.639444872453601
s(S'0.00.61.4'
p537
I0
tp538
F1.5696976006728254
s(S'0.10.91.4'
p539
I0
tp540
F1.652
s(S'0.00.51.3'
p541
I0
tp542
F2.0887593834906086
s(S'0.31.41.6'
p543
I1
tp544
F2.3964213446238354
s(S'-0.31.12.2'
p545
I1
tp546
F1.736
s(S'-0.31.02.3'
p547
I1
tp548
F1.6600000000000001
s(S'-0.00.71.7'
p549
I0
tp550
F1.3599999999999999
s(S'0.10.50.6'
p551
I2
tp552
F5.007079315779726
s(S'0.41.41.9'
p553
I2
tp554
F6.2457141524479995
s(S'0.31.51.9'
p555
I1
tp556
F3.2624424753694976
s(S'-0.10.71.9'
p557
I1
tp558
F1.5
s(S'0.31.62.3'
p559
I2
tp560
F4.252838250501258
s(S'0.01.0-0.0'
p561
I1
tp562
F0.40620587219435844
s(S'-0.51.42.9'
p563
I1
tp564
F3.8726482845883954
s(S'0.00.71.4'
p565
I1
tp566
F2.791314397689302
s(S'0.01.82.1'
p567
I0
tp568
F2.30703616
s(S'0.52.11.6'
p569
I2
tp570
F3.7371359999999996
s(S'0.52.21.8'
p571
I0
tp572
F3.26
s(S'0.41.0-0.0'
p573
I2
tp574
F5.768927419966852
s(S'-0.51.43.1'
p575
I0
tp576
F2.7885479424
s(S'0.51.80.4'
p577
I1
tp578
F1.66
s(S'0.00.31.6'
p579
I1
tp580
F2.8051703322356745
s(S'0.31.52.2'
p581
I0
tp582
F2.8475622015764257
s(S'0.00.51.2'
p583
I2
tp584
F1.2153690757654436
s(S'-0.21.02.3'
p585
I0
tp586
F2.53643621953536
s(S'0.11.0-0.0'
p587
I2
tp588
F1.0330030553690621
s(S'0.11.31.5'
p589
I2
tp590
F1.98
s(S'0.11.00.0'
p591
I2
tp592
F0.4726587094760792
s(S'0.00.41.6'
p593
I1
tp594
F4.0004928419314325
s(S'0.11.11.2'
p595
I0
tp596
F1.83
s(S'0.51.70.9'
p597
I2
tp598
F1.66
s(S'0.31.41.8'
p599
I1
tp600
F3.7520325065090994
s(S'0.41.60.9'
p601
I1
tp602
F3.4202129794252807
s(S'0.30.70.7'
p603
I1
tp604
F1.7
s(S'0.31.62.4'
p605
I0
tp606
F2.7184878938665396
s(S'0.21.01.1'
p607
I1
tp608
F2.8896
s(S'0.21.31.0'
p609
I2
tp610
F2.4076896
s(S'0.41.61.3'
p611
I1
tp612
F5.5228188672
s(S'0.21.0-0.0'
p613
I0
tp614
F1.1824338154318872
s(S'0.41.41.0'
p615
I1
tp616
F0.21508536727241273
s(S'0.11.21.4'
p617
I0
tp618
F1.95
s(S'0.01.01.5'
p619
I0
tp620
F1.768
s(S'-0.00.61.8'
p621
I0
tp622
F1.3599999999999999
s(S'0.00.41.4'
p623
I2
tp624
F4.587975042753108
s(S'0.31.11.0'
p625
I2
tp626
F-97.9
s(S'0.01.00.0'
p627
I2
tp628
F0.18353610483101873
s(S'-0.00.91.9'
p629
I0
tp630
F2.0233810944000004
s(S'0.81.00.0'
p631
I1
tp632
F3.6617594397796602
s(S'0.00.61.3'
p633
I0
tp634
F5.855179572995246
s(S'-0.10.82.0'
p635
I0
tp636
F1.74
s(S'0.40.70.7'
p637
I0
tp638
F5.7
s(S'-0.51.32.6'
p639
I1
tp640
F1.71
s(S'0.71.00.0'
p641
I1
tp642
F7.504383967413879
s(S'0.40.70.8'
p643
I1
tp644
F2.9235537905207853
s(S'0.41.00.0'
p645
I2
tp646
F7.750763178158761
s(S'0.00.41.5'
p647
I0
tp648
F3.943671127565265
s(S'0.31.51.5'
p649
I2
tp650
F3.91
s(S'-0.51.32.4'
p651
I0
tp652
F1.71
s(S'0.31.11.3'
p653
I0
tp654
F-13.9
s(S'0.52.11.9'
p655
I2
tp656
F5.67788310600889
s(S'-0.51.43.0'
p657
I0
tp658
F2.0184
s(S'0.51.5-0.1'
p659
I0
tp660
F0.9052599984691717
s(S'0.51.50.4'
p661
I2
tp662
F0.19722436226800544
s(S'-0.41.32.3'
p663
I1
tp664
F1.71
s(S'0.20.81.2'
p665
I0
tp666
F0.41886116991581024
s(S'000'
p667
I0
tp668
F0.4376450239282705
s(S'0.00.61.4'
p669
I2
tp670
F2.032417374502846
s(S'0.61.00.0'
p671
I1
tp672
F6.18883091224452
s(S'0.41.42.1'
p673
I2
tp674
F4.454000000000001
s(S'0.10.81.5'
p675
I2
tp676
F2.088
s(S'0.01.01.3'
p677
I2
tp678
F1.75
s(S'0.00.32.0'
p679
I1
tp680
F1.9614264207991514
s(S'-0.00.71.7'
p681
I2
tp682
F5.711785908948444
s(S'0.10.91.2'
p683
I2
tp684
F1.8180196097281442
s(S'0.41.41.8'
p685
I1
tp686
F5.155473280000001
s(S'0.20.50.7'
p687
I2
tp688
F1.5
s(S'0.51.00.0'
p689
I1
tp690
F5.538756868601473
s(S'-0.00.31.6'
p691
I2
tp692
F2.84519971482825
s(S'0.00.41.2'
p693
I2
tp694
F2.0817042518016
s(S'0.31.62.2'
p695
I1
tp696
F4.60362166204379
s(S'-0.41.22.2'
p697
I2
tp698
F2.564059122688
s(S'0.00.91.5'
p699
I1
tp700
F1.6400000000000001
s(S'0.31.11.2'
p701
I2
tp702
F1.09909747389835
s(S'0.31.31.0'
p703
I1
tp704
F0.2970613634073598
s(S'0.11.21.4'
p705
I1
tp706
F1.9
s(S'0.00.81.6'
p707
I1
tp708
F3.98528
s(S'0.52.11.7'
p709
I1
tp710
F6.294842257960795
s(S'0.51.50.5'
p711
I0
tp712
F0.22246908063831014
s(S'-0.31.12.3'
p713
I2
tp714
F3.0423911168000006
s(S'0.11.41.4'
p715
I0
tp716
F1.98
s(S'0.31.41.3'
p717
I1
tp718
F1.683772233983162
s(S'-0.01.21.7'
p719
I0
tp720
F1.92
s(S'-0.21.02.3'
p721
I2
tp722
F2.7102805987328003
s(S'0.42.31.7'
p723
I1
tp724
F3.1660000000000004
s(S'0.31.41.4'
p725
I0
tp726
F2.4309049999758106
s(S'-0.01.11.7'
p727
I0
tp728
F1.854
s(S'0.31.52.4'
p729
I2
tp730
F2.055482013506972
s(S'0.10.91.3'
p731
I0
tp732
F6.146851432816154
s(S'0.31.21.2'
p733
I0
tp734
F1.280084635283351
s(S'0.11.82.4'
p735
I2
tp736
F1.6870177871865295
s(S'-0.00.71.8'
p737
I0
tp738
F1.3579999999999999
s(S'0.10.50.9'
p739
I0
tp740
F8.437960325306008
s(S'-0.01.0-0.0'
p741
I1
tp742
F6.836353635202801
s(S'-0.20.92.2'
p743
I0
tp744
F1.6
s(S'0.11.31.4'
p745
I2
tp746
F1.95
s(S'-0.12.02.2'
p747
I1
tp748
F3.901252994149769
s(S'0.52.11.4'
p749
I1
tp750
F4.366319999999999
s(S'0.51.50.2'
p751
I2
tp752
F0.21171444528735636
s(S'0.00.81.4'
p753
I2
tp754
F1.82736576
s(S'0.20.91.1'
p755
I1
tp756
F2.598
s(S'0.21.31.0'
p757
I0
tp758
F2.430645277556736
s(S'-0.10.92.1'
p759
I0
tp760
F1.9643693348864
s(S'0.51.0-0.0'
p761
I1
tp762
F8.743781573605009
s(S'0.41.81.6'
p763
I0
tp764
F3.75
s(S'0.10.81.3'
p765
I2
tp766
F5.027561398103618
s(S'0.41.70.9'
p767
I1
tp768
F2.0124
s(S'0.51.50.9'
p769
I1
tp770
F0.41124431976417575
s(S'0.42.41.6'
p771
I0
tp772
F13.967059493951343
s(S'-0.00.61.8'
p773
I2
tp774
F1.19
s(S'0.31.0-0.0'
p775
I0
tp776
F3.970541266281785
s(S'0.00.50.7'
p777
I0
tp778
F6.444
s(S'0.11.01.4'
p779
I1
tp780
F1.83
s(S'0.51.60.1'
p781
I1
tp782
F0.1733652134690377
s(S'0.51.50.7'
p783
I2
tp784
F0.19722436226800544
s(S'0.31.51.0'
p785
I2
tp786
F1.83
s(S'-0.00.91.9'
p787
I2
tp788
F1.6400000000000001
s(S'0.00.81.5'
p789
I0
tp790
F1.9076344155389953
s(S'-0.10.82.0'
p791
I2
tp792
F1.5
s(S'-0.00.40.7'
p793
I2
tp794
F1.42
s(S'-0.31.02.3'
p795
I2
tp796
F1.75
s(S'-0.11.61.7'
p797
I2
tp798
F9.895841819916757
s(S'0.52.21.7'
p799
I0
tp800
F3.23
s(S'-0.10.71.8'
p801
I1
tp802
F1.3499999999999999
s(S'0.00.41.5'
p803
I2
tp804
F4.6603557758207055
s(S'0.01.0-0.0'
p805
I2
tp806
F0.40357960009450816
s(S'0.00.71.5'
p807
I1
tp808
F2.8285394763625606
s(S'-0.51.42.9'
p809
I2
tp810
F4.119152116572915
s(S'0.11.00.0'
p811
I1
tp812
F0.4760707464076955
s(S'0.51.51.1'
p813
I2
tp814
F0.19722436226800544
s(S'0.51.80.5'
p815
I1
tp816
F1.66
s(S'0.31.51.3'
p817
I0
tp818
F3.91
s(S'-0.00.51.6'
p819
I0
tp820
F1.0
s(S'000'
p821
I2
tp822
F1.2273100012315816
s(S'-0.01.00.0'
p823
I1
tp824
F1.8034313756004057
s(S'0.00.61.5'
p825
I1
tp826
F3.985607277437989
s(S'0.41.61.0'
p827
I2
tp828
F1.83
s(S'-0.01.11.6'
p829
I0
tp830
F1.84
s(S'0.01.01.3'
p831
I0
tp832
F1.981837363085848
s(S'-0.31.12.3'
p833
I0
tp834
F2.8611800597381123
s(S'0.41.0-0.0'
p835
I0
tp836
F6.8248564963833775
s(S'-0.00.71.6'
p837
I1
tp838
F1.56408
s(S'0.31.21.1'
p839
I0
tp840
F0.2308193987045868
s(S'-0.00.61.6'
p841
I0
tp842
F1.47288
s(S'-0.00.91.9'
p843
I1
tp844
F2.2429054720000003
s(S'-0.00.31.6'
p845
I0
tp846
F2.856718889438483
s(S'0.81.00.0'
p847
I2
tp848
F4.837996498622874
s(S'-0.41.22.2'
p849
I0
tp850
F2.69071762194432
s(S'-0.10.91.9'
p851
I2
tp852
F1.63
s(S'0.11.0-0.0'
p853
I0
tp854
F0.5003106919553021
s(S'0.00.40.9'
p855
I2
tp856
F5.266552963172385
s(S'-0.00.81.8'
p857
I1
tp858
F2.8221429502361604
s(S'0.51.80.7'
p859
I2
tp860
F1.9256
s(S'0.61.00.0'
p861
I2
tp862
F7.204156670470439
s(S'0.31.52.3'
p863
I1
tp864
F1.972
s(S'0.10.81.4'
p865
I2
tp866
F1.8
s(S'0.00.51.5'
p867
I1
tp868
F3.1838963426413582
s(S'-0.00.81.6'
p869
I0
tp870
F1.9148288
s.