(dp0
(S'00-0.17-2.0'
p1
I0
tp2
F1.0
s(S'00-0.21-2.0'
p3
I1
tp4
I0
s(S'00-0.13-2.0'
p5
I0
tp6
F1.0
s(S'00-0.11-2.0'
p7
I1
tp8
F1.0
s(S'00-0.08-3.0'
p9
I0
tp10
F1.0
s(S'00-0.06-3.0'
p11
I0
tp12
F1.0
s(S'000.00.0'
p13
I1
tp14
F2.820000597715538
s(S'00-0.09-3.0'
p15
I0
tp16
F1.0
s(S'00-0.0-1.0'
p17
I0
tp18
F1.1600000000000001
s(S'00-0.03-3.0'
p19
I0
tp20
F1.1600000000000001
s(S'00-0.12-3.0'
p21
I0
tp22
F1.0
s(S'00-0.19-2.0'
p23
I1
tp24
I0
s(S'00-0.15-2.0'
p25
I0
tp26
F1.1600000000000001
s.